(dp1
S'parity'
p2
S'O'
sS'baudrate'
p3
I1800
sS'bytesize'
p4
I8
sS'xonxoff'
p5
I00
sS'interCharTimeout'
p6
NsS'rtscts'
p7
I00
sS'timeout'
p8
NsS'stopbits'
p9
I2
sS'dsrdtr'
p10
I00
sS'writeTimeout'
p11
NsS'port'
p12
I0
s.