(dp1
VitsTerminator
p2
Va!
p3
sS'parity'
p4
S'O'
sS'baudrate'
p5
I115200
sS' '
I00
sS'bytesize'
p6
I8
sS'xonxoff'
p7
I01
sS'automaticTerminator'
p8
I01
sS'interCharTimeout'
p9
NsS'rtscts'
p10
I00
sS'timeout'
p11
NsS'stopbits'
p12
I2
sS'dsrdtr'
p13
I00
sS'writeTimeout'
p14
NsS'port'
p15
S'COM3'
p16
sS'terminator'
p17
Vw\u0142asny
p18
s.