(dp1
S'parity'
p2
S'N'
sS'baudrate'
p3
I9600
sS' '
I00
sS'bytesize'
p4
I7
sS'xonxoff'
p5
I00
sS'port'
p6
I1
sS'interCharTimeout'
p7
NsS'rtscts'
p8
I00
sS'timeout'
p9
NsS'stopbits'
p10
F1.5
sS'dsrdtr'
p11
I01
sS'writeTimeout'
p12
NsS'automaticTerminator'
p13
I01
sS'terminator'
p14
VCR
p15
s.