(dp1
S'parity'
p2
S'O'
sS'baudrate'
p3
I200
sS'bytesize'
p4
I7
sS'xonxoff'
p5
I00
sS'interCharTimeout'
p6
NsS'rtscts'
p7
I00
sS'timeout'
p8
NsS'stopbits'
p9
F1.5
sS'dsrdtr'
p10
I01
sS'writeTimeout'
p11
NsS'port'
p12
I1
s.