(dp1
S'parity'
p2
S'N'
sS'baudrate'
p3
I9600
sS' '
I00
sS'bytesize'
p4
I8
sS'xonxoff'
p5
I00
sS'automaticTerminator'
p6
I00
sS'interCharTimeout'
p7
NsS'rtscts'
p8
I00
sS'timeout'
p9
NsS'stopbits'
p10
I1
sS'dsrdtr'
p11
I00
sS'writeTimeout'
p12
NsS'port'
p13
I2
sS'terminator'
p14
S'CR'
p15
s.