(dp1
S'itsTerminator'
p2
S'!'
sS'parity'
p3
S'N'
sS'baudrate'
p4
I600
sS' '
I00
sS'bytesize'
p5
I8
sS'xonxoff'
p6
I00
sS'automaticTerminator'
p7
I01
sS'interCharTimeout'
p8
NsS'rtscts'
p9
I01
sS'timeout'
p10
NsS'stopbits'
p11
I1
sS'dsrdtr'
p12
I00
sS'writeTimeout'
p13
NsS'port'
p14
I2
sS'terminator'
p15
VCR
p16
s.