(dp1
S'parity'
p2
S'E'
sS'baudrate'
p3
I9600
sS' '
I00
sS'bytesize'
p4
I8
sS'xonxoff'
p5
I00
sS'port'
p6
S'COM2'
p7
sS'interCharTimeout'
p8
NsS'rtscts'
p9
I00
sS'timeout'
p10
NsS'stopbits'
p11
I2
sS'dsrdtr'
p12
I01
sS'writeTimeout'
p13
NsS'automaticTerminator'
p14
I01
sS'terminator'
p15
VCR, LF
p16
s.